; Function Attrs: nounwind sspstrong uwtable
define hidden i64 @rb_ractor_thread_list() local_unnamed_addr #0 {
  %1 = load ptr, ptr @ruby_single_main_ractor, align 8, !tbaa !39
  %.not.i.i = icmp eq ptr %1, null
  br i1 %.not.i.i, label %2, label %rb_current_ractor.exit

2:                                                ; preds = %0
  %3 = tail call align 8 ptr @llvm.threadlocal.address.p0(ptr align 8 @ruby_current_ec)
  %4 = load ptr, ptr %3, align 8, !tbaa !123
  %5 = getelementptr i8, ptr %4, i64 48
  %.val.i.i = load ptr, ptr %5, align 8, !tbaa !90
  %.not.i.i.i = icmp eq ptr %.val.i.i, null
  br i1 %.not.i.i.i, label %rb_current_ractor.exit, label %6

6:                                                ; preds = %2
  %7 = getelementptr inbounds nuw i8, ptr %.val.i.i, i64 24
  %8 = load ptr, ptr %7, align 8, !tbaa !57
  br label %rb_current_ractor.exit

rb_current_ractor.exit:                           ; preds = %0, %2, %6
  %.0.i.i = phi ptr [ %1, %0 ], [ %8, %6 ], [ null, %2 ]
  %9 = tail call i64 @rb_ary_new() #19
  %10 = getelementptr inbounds nuw i8, ptr %.0.i.i, i64 256
  %.07 = load ptr, ptr %10, align 8, !tbaa !77
  %.not8 = icmp eq ptr %.07, %10
  br i1 %.not8, label %._crit_edge, label %.lr.ph

.lr.ph:                                           ; preds = %rb_current_ractor.exit, %18
  %.09 = phi ptr [ %.0, %18 ], [ %.07, %rb_current_ractor.exit ]
  %11 = getelementptr inbounds nuw i8, ptr %.09, i64 240
  %12 = load i8, ptr %11, align 8
  %13 = and i8 %12, 3
  %switch.not = icmp eq i8 %13, 3
  br i1 %switch.not, label %18, label %14

14:                                               ; preds = %.lr.ph
  %15 = getelementptr inbounds nuw i8, ptr %.09, i64 16
  %16 = load i64, ptr %15, align 8, !tbaa !126
  %17 = tail call i64 @rb_ary_push(i64 noundef %9, i64 noundef %16) #19
  br label %18

18:                                               ; preds = %.lr.ph, %14
  %.0 = load ptr, ptr %.09, align 8, !tbaa !77
  %.not = icmp eq ptr %.0, %10
  br i1 %.not, label %._crit_edge, label %.lr.ph, !llvm.loop !127

._crit_edge:                                      ; preds = %18, %rb_current_ractor.exit
  ret i64 %9
}